target datalayout = "e-m:e-p270:32:32-p271:32:32-p272:64:64-i64:64-i128:128-f80:128-n8:16:32:64-S128"
target triple = "x86_64-unknown-linux-gnu"

%class.context_params = type { i32, i32, %"class.std::__cxx11::basic_string", %"class.std::__cxx11::basic_string", i8, i8, i8, i8, i8, i8, i8, i8, i8, i8, i8, %"class.std::__cxx11::basic_string" }
%"class.std::__cxx11::basic_string" = type { %"struct.std::__cxx11::basic_string<char>::_Alloc_hider", i64, %union.anon }
%"struct.std::__cxx11::basic_string<char>::_Alloc_hider" = type { ptr }
%union.anon = type { i64, [8 x i8] }

@.str.11 = private unnamed_addr constant [12 x i8] c"auto_config\00", align 1
@.str.12 = private unnamed_addr constant [6 x i8] c"proof\00", align 1
@.str.13 = private unnamed_addr constant [6 x i8] c"model\00", align 1
@.str.20 = private unnamed_addr constant [11 x i8] c"unsat_core\00", align 1

; Function Attrs: mustprogress uwtable
define hidden void @_ZN14context_params17get_solver_paramsER10params_refRbS2_S2_(ptr noundef nonnull align 8 dereferenceable(120) %this, ptr noundef nonnull align 8 dereferenceable(8) %p, ptr noundef nonnull align 1 dereferenceable(1) %proofs_enabled, ptr noundef nonnull align 1 dereferenceable(1) %models_enabled, ptr noundef nonnull align 1 dereferenceable(1) %unsat_core_enabled) #4 align 2 {
entry:
  %this.addr = alloca ptr, align 8
  %p.addr = alloca ptr, align 8
  %proofs_enabled.addr = alloca ptr, align 8
  %models_enabled.addr = alloca ptr, align 8
  %unsat_core_enabled.addr = alloca ptr, align 8
  store ptr %this, ptr %this.addr, align 8
  store ptr %p, ptr %p.addr, align 8
  store ptr %proofs_enabled, ptr %proofs_enabled.addr, align 8
  store ptr %models_enabled, ptr %models_enabled.addr, align 8
  store ptr %unsat_core_enabled, ptr %unsat_core_enabled.addr, align 8
  %this1 = load ptr, ptr %this.addr, align 8
  %0 = load ptr, ptr %p.addr, align 8
  %m_proof = getelementptr inbounds %class.context_params, ptr %this1, i32 0, i32 5
  %1 = load i8, ptr %m_proof, align 1
  %tobool = trunc i8 %1 to i1
  %call = call noundef zeroext i1 @_ZNK10params_ref8get_boolEPKcb(ptr noundef nonnull align 8 dereferenceable(8) %0, ptr noundef @.str.12, i1 noundef zeroext %tobool)
  %conv = zext i1 %call to i32
  %2 = load ptr, ptr %proofs_enabled.addr, align 8
  %3 = load i8, ptr %2, align 1
  %tobool2 = trunc i8 %3 to i1
  %conv3 = zext i1 %tobool2 to i32
  %and = and i32 %conv3, %conv
  %tobool4 = icmp ne i32 %and, 0
  %frombool = zext i1 %tobool4 to i8
  store i8 %frombool, ptr %2, align 1
  %4 = load ptr, ptr %p.addr, align 8
  %m_model = getelementptr inbounds %class.context_params, ptr %this1, i32 0, i32 9
  %5 = load i8, ptr %m_model, align 1
  %tobool5 = trunc i8 %5 to i1
  %call6 = call noundef zeroext i1 @_ZNK10params_ref8get_boolEPKcb(ptr noundef nonnull align 8 dereferenceable(8) %4, ptr noundef @.str.13, i1 noundef zeroext %tobool5)
  %conv7 = zext i1 %call6 to i32
  %6 = load ptr, ptr %models_enabled.addr, align 8
  %7 = load i8, ptr %6, align 1
  %tobool8 = trunc i8 %7 to i1
  %conv9 = zext i1 %tobool8 to i32
  %and10 = and i32 %conv9, %conv7
  %tobool11 = icmp ne i32 %and10, 0
  %frombool12 = zext i1 %tobool11 to i8
  store i8 %frombool12, ptr %6, align 1
  %m_unsat_core = getelementptr inbounds %class.context_params, ptr %this1, i32 0, i32 12
  %8 = load i8, ptr %m_unsat_core, align 8
  %tobool13 = trunc i8 %8 to i1
  br i1 %tobool13, label %lor.end, label %lor.rhs

lor.rhs:                                          ; preds = %entry
  %9 = load ptr, ptr %p.addr, align 8
  %call14 = call noundef zeroext i1 @_ZNK10params_ref8get_boolEPKcb(ptr noundef nonnull align 8 dereferenceable(8) %9, ptr noundef @.str.20, i1 noundef zeroext false)
  br label %lor.end

lor.end:                                          ; preds = %lor.rhs, %entry
  %10 = phi i1 [ true, %entry ], [ %call14, %lor.rhs ]
  %11 = load ptr, ptr %unsat_core_enabled.addr, align 8
  %frombool15 = zext i1 %10 to i8
  store i8 %frombool15, ptr %11, align 1
  %m_auto_config = getelementptr inbounds %class.context_params, ptr %this1, i32 0, i32 4
  %12 = load i8, ptr %m_auto_config, align 8
  %tobool16 = trunc i8 %12 to i1
  br i1 %tobool16, label %if.end, label %land.lhs.true

land.lhs.true:                                    ; preds = %lor.end
  %13 = load ptr, ptr %p.addr, align 8
  %call17 = call noundef zeroext i1 @_ZNK10params_ref8containsEPKc(ptr noundef nonnull align 8 dereferenceable(8) %13, ptr noundef @.str.11)
  br i1 %call17, label %if.end, label %if.then

if.then:                                          ; preds = %land.lhs.true
  %14 = load ptr, ptr %p.addr, align 8
  call void @_ZN10params_ref8set_boolEPKcb(ptr noundef nonnull align 8 dereferenceable(8) %14, ptr noundef @.str.11, i1 noundef zeroext false)
  br label %if.end

if.end:                                           ; preds = %if.then, %land.lhs.true, %lor.end
  ret void
}