; Function Attrs: mustprogress uwtable
define hidden void @_ZN14context_params17get_solver_paramsER10params_refRbS2_S2_(ptr nocapture noundef nonnull readonly align 8 dereferenceable(120) %this, ptr noundef nonnull align 8 dereferenceable(8) %p, ptr nocapture noundef nonnull align 1 dereferenceable(1) %proofs_enabled, ptr nocapture noundef nonnull align 1 dereferenceable(1) %models_enabled, ptr nocapture noundef nonnull writeonly align 1 dereferenceable(1) %unsat_core_enabled) local_unnamed_addr #3 align 2 {
entry:
  %m_proof = getelementptr inbounds i8, ptr %this, i64 73
  %0 = load i8, ptr %m_proof, align 1
  %1 = and i8 %0, 1
  %tobool = icmp ne i8 %1, 0
  %call = tail call noundef zeroext i1 @_ZNK10params_ref8get_boolEPKcb(ptr noundef nonnull align 8 dereferenceable(8) %p, ptr noundef nonnull @.str.12, i1 noundef zeroext %tobool)
  %2 = load i8, ptr %proofs_enabled, align 1
  %3 = and i8 %2, 1
  %tobool45 = icmp ne i8 %3, 0
  %tobool4 = select i1 %call, i1 %tobool45, i1 false
  %frombool = zext i1 %tobool4 to i8
  store i8 %frombool, ptr %proofs_enabled, align 1
  %m_model = getelementptr inbounds i8, ptr %this, i64 77
  %4 = load i8, ptr %m_model, align 1
  %5 = and i8 %4, 1
  %tobool5 = icmp ne i8 %5, 0
  %call6 = tail call noundef zeroext i1 @_ZNK10params_ref8get_boolEPKcb(ptr noundef nonnull align 8 dereferenceable(8) %p, ptr noundef nonnull @.str.13, i1 noundef zeroext %tobool5)
  %6 = load i8, ptr %models_enabled, align 1
  %7 = and i8 %6, 1
  %tobool116 = icmp ne i8 %7, 0
  %tobool11 = select i1 %call6, i1 %tobool116, i1 false
  %frombool12 = zext i1 %tobool11 to i8
  store i8 %frombool12, ptr %models_enabled, align 1
  %m_unsat_core = getelementptr inbounds i8, ptr %this, i64 80
  %8 = load i8, ptr %m_unsat_core, align 8
  %9 = and i8 %8, 1
  %tobool13.not = icmp eq i8 %9, 0
  br i1 %tobool13.not, label %lor.rhs, label %lor.end

lor.rhs:                                          ; preds = %entry
  %call14 = tail call noundef zeroext i1 @_ZNK10params_ref8get_boolEPKcb(ptr noundef nonnull align 8 dereferenceable(8) %p, ptr noundef nonnull @.str.20, i1 noundef zeroext false)
  %10 = zext i1 %call14 to i8
  br label %lor.end

lor.end:                                          ; preds = %lor.rhs, %entry
  %frombool15 = phi i8 [ 1, %entry ], [ %10, %lor.rhs ]
  store i8 %frombool15, ptr %unsat_core_enabled, align 1
  %m_auto_config = getelementptr inbounds i8, ptr %this, i64 72
  %11 = load i8, ptr %m_auto_config, align 8
  %12 = and i8 %11, 1
  %tobool16.not = icmp eq i8 %12, 0
  br i1 %tobool16.not, label %land.lhs.true, label %if.end

land.lhs.true:                                    ; preds = %lor.end
  %call17 = tail call noundef zeroext i1 @_ZNK10params_ref8containsEPKc(ptr noundef nonnull align 8 dereferenceable(8) %p, ptr noundef nonnull @.str.11)
  br i1 %call17, label %if.end, label %if.then

if.then:                                          ; preds = %land.lhs.true
  tail call void @_ZN10params_ref8set_boolEPKcb(ptr noundef nonnull align 8 dereferenceable(8) %p, ptr noundef nonnull @.str.11, i1 noundef zeroext false)
  br label %if.end

if.end:                                           ; preds = %if.then, %land.lhs.true, %lor.end
  ret void
}